; Function Attrs: null_pointer_is_valid sspstrong uwtable
define internal i32 @dissect_header_static_key(ptr noundef %0, ptr noundef %1, ptr noundef %2, ptr readnone captures(none) %3) #0 {
  %5 = alloca %struct.except_stacknode, align 8
  %6 = alloca %struct.except_cleanup, align 8
  %7 = alloca i32, align 4
  call void @llvm.lifetime.start.p0(i64 4, ptr nonnull %7) #8
  store i32 0, ptr %7, align 4
  %8 = load i32, ptr @hf_hdr_static_key, align 4
  %9 = tail call ptr @proto_tree_add_item(ptr noundef %2, i32 noundef %8, ptr noundef %0, i32 noundef 0, i32 noundef -1, i32 noundef 0)
  %10 = load i32, ptr @ett_hdr_static_key, align 4
  %11 = tail call ptr @proto_item_add_subtree(ptr noundef %9, i32 noundef %10)
  %12 = tail call ptr @g_variant_new_int64(i64 noundef 1)
  call void @llvm.lifetime.start.p0(i64 24, ptr nonnull %5) #8
  call void @llvm.lifetime.start.p0(i64 16, ptr nonnull %6) #8
  call void @except_setup_clean(ptr noundef nonnull %5, ptr noundef nonnull %6, ptr noundef nonnull @g_variant_cleanup, ptr noundef %12)
  %13 = load ptr, ptr @table_keyparam, align 8
  call fastcc void @dissect_header_map(ptr noundef %13, ptr noundef %0, ptr noundef %1, ptr noundef %11, ptr noundef nonnull %7, ptr noundef %12)
  %14 = call ptr @except_pop()
  %15 = load ptr, ptr %6, align 8
  %16 = getelementptr inbounds nuw i8, ptr %6, i64 8
  %17 = load ptr, ptr %16, align 8
  call void %15(ptr noundef %17)
  call void @llvm.lifetime.end.p0(i64 16, ptr nonnull %6) #8
  call void @llvm.lifetime.end.p0(i64 24, ptr nonnull %5) #8
  %18 = load i32, ptr %7, align 4
  call void @llvm.lifetime.end.p0(i64 4, ptr nonnull %7) #8
  ret i32 %18
}